target datalayout = "e-m:e-p270:32:32-p271:32:32-p272:64:64-i64:64-i128:128-f80:128-n8:16:32:64-S128"
target triple = "x86_64-pc-linux-gnu"

%struct.bio_st = type { ptr, ptr, ptr, i32, i32, i32, i32, i32, i32, ptr, ptr, i64, i64 }
%struct.bio_bio_st = type { ptr, i32, i64, i64, i64, ptr, i8, i8, i8, i64 }

@.str = private unnamed_addr constant [121 x i8] c"generated/home/dtcxzyw/WorkSpace/Projects/compilers/llvm-opt-benchmark/bench/libquic/libquic/boringssl/crypto/bio/pair.c\00", align 1

; Function Attrs: nounwind uwtable
define internal i64 @bio_zero_copy_get_read_buf(ptr noundef %0, ptr noundef %1, ptr noundef %2) #0 {
  %4 = alloca ptr, align 8
  %5 = alloca ptr, align 8
  %6 = alloca ptr, align 8
  %7 = alloca i64, align 8
  store ptr %0, ptr %4, align 8, !tbaa !23
  store ptr %1, ptr %5, align 8, !tbaa !11
  store ptr %2, ptr %6, align 8, !tbaa !13
  call void @llvm.lifetime.start.p0(i64 8, ptr %7) #8
  %8 = load ptr, ptr %4, align 8, !tbaa !23
  %9 = getelementptr inbounds nuw %struct.bio_bio_st, ptr %8, i32 0, i32 2
  %10 = load i64, ptr %9, align 8, !tbaa !29
  %11 = load ptr, ptr %4, align 8, !tbaa !23
  %12 = getelementptr inbounds nuw %struct.bio_bio_st, ptr %11, i32 0, i32 4
  %13 = load i64, ptr %12, align 8, !tbaa !30
  %14 = load ptr, ptr %4, align 8, !tbaa !23
  %15 = getelementptr inbounds nuw %struct.bio_bio_st, ptr %14, i32 0, i32 3
  %16 = load i64, ptr %15, align 8, !tbaa !31
  %17 = sub i64 %13, %16
  %18 = icmp ugt i64 %10, %17
  br i1 %18, label %19, label %27

19:                                               ; preds = %3
  %20 = load ptr, ptr %4, align 8, !tbaa !23
  %21 = getelementptr inbounds nuw %struct.bio_bio_st, ptr %20, i32 0, i32 4
  %22 = load i64, ptr %21, align 8, !tbaa !30
  %23 = load ptr, ptr %4, align 8, !tbaa !23
  %24 = getelementptr inbounds nuw %struct.bio_bio_st, ptr %23, i32 0, i32 3
  %25 = load i64, ptr %24, align 8, !tbaa !31
  %26 = sub i64 %22, %25
  store i64 %26, ptr %7, align 8, !tbaa !15
  br label %31

27:                                               ; preds = %3
  %28 = load ptr, ptr %4, align 8, !tbaa !23
  %29 = getelementptr inbounds nuw %struct.bio_bio_st, ptr %28, i32 0, i32 2
  %30 = load i64, ptr %29, align 8, !tbaa !29
  store i64 %30, ptr %7, align 8, !tbaa !15
  br label %31

31:                                               ; preds = %27, %19
  %32 = load ptr, ptr %4, align 8, !tbaa !23
  %33 = getelementptr inbounds nuw %struct.bio_bio_st, ptr %32, i32 0, i32 5
  %34 = load ptr, ptr %33, align 8, !tbaa !32
  %35 = load ptr, ptr %5, align 8, !tbaa !11
  store ptr %34, ptr %35, align 8, !tbaa !33
  %36 = load ptr, ptr %4, align 8, !tbaa !23
  %37 = getelementptr inbounds nuw %struct.bio_bio_st, ptr %36, i32 0, i32 3
  %38 = load i64, ptr %37, align 8, !tbaa !31
  %39 = load ptr, ptr %6, align 8, !tbaa !13
  store i64 %38, ptr %39, align 8, !tbaa !15
  %40 = load i64, ptr %7, align 8, !tbaa !15
  call void @llvm.lifetime.end.p0(i64 8, ptr %7) #8
  ret i64 %40
}

; Function Attrs: nounwind uwtable
define hidden i32 @BIO_zero_copy_get_read_buf_done(ptr noundef %0, i64 noundef %1) #0 {
  %3 = alloca i32, align 4
  %4 = alloca ptr, align 8
  %5 = alloca i64, align 8
  %6 = alloca ptr, align 8
  %7 = alloca ptr, align 8
  %8 = alloca i64, align 8
  %9 = alloca i64, align 8
  %10 = alloca ptr, align 8
  %11 = alloca i32, align 4
  store ptr %0, ptr %4, align 8, !tbaa !6
  store i64 %1, ptr %5, align 8, !tbaa !15
  call void @llvm.lifetime.start.p0(i64 8, ptr %6) #8
  call void @llvm.lifetime.start.p0(i64 8, ptr %7) #8
  call void @llvm.lifetime.start.p0(i64 8, ptr %8) #8
  call void @llvm.lifetime.start.p0(i64 8, ptr %9) #8
  call void @llvm.lifetime.start.p0(i64 8, ptr %10) #8
  %12 = load ptr, ptr %4, align 8, !tbaa !6
  %13 = getelementptr inbounds nuw %struct.bio_st, ptr %12, i32 0, i32 3
  %14 = load i32, ptr %13, align 8, !tbaa !17
  %15 = icmp ne i32 %14, 0
  br i1 %15, label %17, label %16

16:                                               ; preds = %2
  call void @ERR_put_error(i32 noundef 17, i32 noundef 0, i32 noundef 114, ptr noundef @.str, i32 noundef 230)
  store i32 0, ptr %3, align 4
  store i32 1, ptr %11, align 4
  br label %106

17:                                               ; preds = %2
  %18 = load ptr, ptr %4, align 8, !tbaa !6
  %19 = getelementptr inbounds nuw %struct.bio_st, ptr %18, i32 0, i32 9
  %20 = load ptr, ptr %19, align 8, !tbaa !22
  store ptr %20, ptr %6, align 8, !tbaa !23
  %21 = load ptr, ptr %6, align 8, !tbaa !23
  %22 = icmp ne ptr %21, null
  br i1 %22, label %23, label %28

23:                                               ; preds = %17
  %24 = load ptr, ptr %6, align 8, !tbaa !23
  %25 = getelementptr inbounds nuw %struct.bio_bio_st, ptr %24, i32 0, i32 0
  %26 = load ptr, ptr %25, align 8, !tbaa !25
  %27 = icmp ne ptr %26, null
  br i1 %27, label %29, label %28

28:                                               ; preds = %23, %17
  call void @ERR_put_error(i32 noundef 17, i32 noundef 0, i32 noundef 115, ptr noundef @.str, i32 noundef 237)
  store i32 0, ptr %3, align 4
  store i32 1, ptr %11, align 4
  br label %106

29:                                               ; preds = %23
  %30 = load ptr, ptr %6, align 8, !tbaa !23
  %31 = getelementptr inbounds nuw %struct.bio_bio_st, ptr %30, i32 0, i32 0
  %32 = load ptr, ptr %31, align 8, !tbaa !25
  %33 = getelementptr inbounds nuw %struct.bio_st, ptr %32, i32 0, i32 9
  %34 = load ptr, ptr %33, align 8, !tbaa !22
  store ptr %34, ptr %7, align 8, !tbaa !23
  %35 = load ptr, ptr %7, align 8, !tbaa !23
  %36 = icmp ne ptr %35, null
  br i1 %36, label %37, label %50

37:                                               ; preds = %29
  %38 = load ptr, ptr %7, align 8, !tbaa !23
  %39 = getelementptr inbounds nuw %struct.bio_bio_st, ptr %38, i32 0, i32 0
  %40 = load ptr, ptr %39, align 8, !tbaa !25
  %41 = icmp ne ptr %40, null
  br i1 %41, label %42, label %50

42:                                               ; preds = %37
  %43 = load ptr, ptr %7, align 8, !tbaa !23
  %44 = getelementptr inbounds nuw %struct.bio_bio_st, ptr %43, i32 0, i32 0
  %45 = load ptr, ptr %44, align 8, !tbaa !25
  %46 = getelementptr inbounds nuw %struct.bio_st, ptr %45, i32 0, i32 9
  %47 = load ptr, ptr %46, align 8, !tbaa !22
  %48 = load ptr, ptr %6, align 8, !tbaa !23
  %49 = icmp ne ptr %47, %48
  br i1 %49, label %50, label %51

50:                                               ; preds = %42, %37, %29
  call void @ERR_put_error(i32 noundef 17, i32 noundef 0, i32 noundef 115, ptr noundef @.str, i32 noundef 243)
  store i32 0, ptr %3, align 4
  store i32 1, ptr %11, align 4
  br label %106

51:                                               ; preds = %42
  %52 = load ptr, ptr %7, align 8, !tbaa !23
  %53 = getelementptr inbounds nuw %struct.bio_bio_st, ptr %52, i32 0, i32 7
  %54 = load i8, ptr %53, align 1, !tbaa !27
  %55 = icmp ne i8 %54, 0
  br i1 %55, label %57, label %56

56:                                               ; preds = %51
  call void @ERR_put_error(i32 noundef 17, i32 noundef 0, i32 noundef 104, ptr noundef @.str, i32 noundef 248)
  store i32 0, ptr %3, align 4
  store i32 1, ptr %11, align 4
  br label %106

57:                                               ; preds = %51
  %58 = load ptr, ptr %7, align 8, !tbaa !23
  %59 = call i64 @bio_zero_copy_get_read_buf(ptr noundef %58, ptr noundef %10, ptr noundef %9)
  store i64 %59, ptr %8, align 8, !tbaa !15
  %60 = load i64, ptr %5, align 8, !tbaa !15
  %61 = load i64, ptr %8, align 8, !tbaa !15
  %62 = icmp ugt i64 %60, %61
  br i1 %62, label %63, label %64

63:                                               ; preds = %57
  call void @ERR_put_error(i32 noundef 17, i32 noundef 0, i32 noundef 104, ptr noundef @.str, i32 noundef 255)
  store i32 0, ptr %3, align 4
  store i32 1, ptr %11, align 4
  br label %106

64:                                               ; preds = %57
  %65 = load i64, ptr %5, align 8, !tbaa !15
  %66 = load ptr, ptr %7, align 8, !tbaa !23
  %67 = getelementptr inbounds nuw %struct.bio_bio_st, ptr %66, i32 0, i32 2
  %68 = load i64, ptr %67, align 8, !tbaa !29
  %69 = sub i64 %68, %65
  store i64 %69, ptr %67, align 8, !tbaa !29
  %70 = load ptr, ptr %7, align 8, !tbaa !23
  %71 = getelementptr inbounds nuw %struct.bio_bio_st, ptr %70, i32 0, i32 3
  %72 = load i64, ptr %71, align 8, !tbaa !31
  %73 = load i64, ptr %5, align 8, !tbaa !15
  %74 = add i64 %72, %73
  %75 = load ptr, ptr %7, align 8, !tbaa !23
  %76 = getelementptr inbounds nuw %struct.bio_bio_st, ptr %75, i32 0, i32 4
  %77 = load i64, ptr %76, align 8, !tbaa !30
  %78 = icmp eq i64 %74, %77
  br i1 %78, label %89, label %79

79:                                               ; preds = %64
  %80 = load ptr, ptr %7, align 8, !tbaa !23
  %81 = getelementptr inbounds nuw %struct.bio_bio_st, ptr %80, i32 0, i32 8
  %82 = load i8, ptr %81, align 2, !tbaa !34
  %83 = icmp ne i8 %82, 0
  br i1 %83, label %92, label %84

84:                                               ; preds = %79
  %85 = load ptr, ptr %7, align 8, !tbaa !23
  %86 = getelementptr inbounds nuw %struct.bio_bio_st, ptr %85, i32 0, i32 2
  %87 = load i64, ptr %86, align 8, !tbaa !29
  %88 = icmp eq i64 %87, 0
  br i1 %88, label %89, label %92

89:                                               ; preds = %84, %64
  %90 = load ptr, ptr %7, align 8, !tbaa !23
  %91 = getelementptr inbounds nuw %struct.bio_bio_st, ptr %90, i32 0, i32 3
  store i64 0, ptr %91, align 8, !tbaa !31
  br label %98

92:                                               ; preds = %84, %79
  %93 = load i64, ptr %5, align 8, !tbaa !15
  %94 = load ptr, ptr %7, align 8, !tbaa !23
  %95 = getelementptr inbounds nuw %struct.bio_bio_st, ptr %94, i32 0, i32 3
  %96 = load i64, ptr %95, align 8, !tbaa !31
  %97 = add i64 %96, %93
  store i64 %97, ptr %95, align 8, !tbaa !31
  br label %98

98:                                               ; preds = %92, %89
  %99 = load i64, ptr %5, align 8, !tbaa !15
  %100 = load ptr, ptr %4, align 8, !tbaa !6
  %101 = getelementptr inbounds nuw %struct.bio_st, ptr %100, i32 0, i32 11
  %102 = load i64, ptr %101, align 8, !tbaa !35
  %103 = add i64 %102, %99
  store i64 %103, ptr %101, align 8, !tbaa !35
  %104 = load ptr, ptr %7, align 8, !tbaa !23
  %105 = getelementptr inbounds nuw %struct.bio_bio_st, ptr %104, i32 0, i32 7
  store i8 0, ptr %105, align 1, !tbaa !27
  store i32 1, ptr %3, align 4
  store i32 1, ptr %11, align 4
  br label %106

106:                                              ; preds = %98, %63, %56, %50, %28, %16
  call void @llvm.lifetime.end.p0(i64 8, ptr %10) #8
  call void @llvm.lifetime.end.p0(i64 8, ptr %9) #8
  call void @llvm.lifetime.end.p0(i64 8, ptr %8) #8
  call void @llvm.lifetime.end.p0(i64 8, ptr %7) #8
  call void @llvm.lifetime.end.p0(i64 8, ptr %6) #8
  %107 = load i32, ptr %3, align 4
  ret i32 %107
}