; Function Attrs: nounwind uwtable
define hidden range(i32 0, 2) i32 @BIO_zero_copy_get_read_buf_done(ptr noundef captures(none) %0, i64 noundef %1) local_unnamed_addr #0 {
  %3 = getelementptr inbounds nuw i8, ptr %0, i64 24
  %4 = load i32, ptr %3, align 8, !tbaa !10
  %.not = icmp eq i32 %4, 0
  br i1 %.not, label %5, label %6

5:                                                ; preds = %2
  tail call void @ERR_put_error(i32 noundef 17, i32 noundef 0, i32 noundef 114, ptr noundef nonnull @.str, i32 noundef 230) #12
  br label %47

6:                                                ; preds = %2
  %7 = getelementptr inbounds nuw i8, ptr %0, i64 48
  %8 = load ptr, ptr %7, align 8, !tbaa !17
  %.not31 = icmp eq ptr %8, null
  br i1 %.not31, label %11, label %9

9:                                                ; preds = %6
  %10 = load ptr, ptr %8, align 8, !tbaa !18
  %.not32 = icmp eq ptr %10, null
  br i1 %.not32, label %11, label %12

11:                                               ; preds = %9, %6
  tail call void @ERR_put_error(i32 noundef 17, i32 noundef 0, i32 noundef 115, ptr noundef nonnull @.str, i32 noundef 237) #12
  br label %47

12:                                               ; preds = %9
  %13 = getelementptr inbounds nuw i8, ptr %10, i64 48
  %14 = load ptr, ptr %13, align 8, !tbaa !17
  %.not33 = icmp eq ptr %14, null
  br i1 %.not33, label %20, label %15

15:                                               ; preds = %12
  %16 = load ptr, ptr %14, align 8, !tbaa !18
  %.not34 = icmp eq ptr %16, null
  br i1 %.not34, label %20, label %17

17:                                               ; preds = %15
  %18 = getelementptr inbounds nuw i8, ptr %16, i64 48
  %19 = load ptr, ptr %18, align 8, !tbaa !17
  %.not35 = icmp eq ptr %19, %8
  br i1 %.not35, label %21, label %20

20:                                               ; preds = %17, %15, %12
  tail call void @ERR_put_error(i32 noundef 17, i32 noundef 0, i32 noundef 115, ptr noundef nonnull @.str, i32 noundef 243) #12
  br label %47

21:                                               ; preds = %17
  %22 = getelementptr inbounds nuw i8, ptr %14, i64 49
  %23 = load i8, ptr %22, align 1, !tbaa !20
  %.not36 = icmp eq i8 %23, 0
  br i1 %.not36, label %24, label %25

24:                                               ; preds = %21
  tail call void @ERR_put_error(i32 noundef 17, i32 noundef 0, i32 noundef 104, ptr noundef nonnull @.str, i32 noundef 248) #12
  br label %47

25:                                               ; preds = %21
  %26 = getelementptr inbounds nuw i8, ptr %14, i64 16
  %27 = load i64, ptr %26, align 8, !tbaa !22
  %28 = getelementptr inbounds nuw i8, ptr %14, i64 32
  %29 = load i64, ptr %28, align 8, !tbaa !23
  %30 = getelementptr inbounds nuw i8, ptr %14, i64 24
  %31 = load i64, ptr %30, align 8, !tbaa !24
  %32 = sub i64 %29, %31
  %..i = tail call i64 @llvm.umin.i64(i64 %27, i64 %32)
  %33 = icmp ugt i64 %1, %..i
  br i1 %33, label %34, label %35

34:                                               ; preds = %25
  tail call void @ERR_put_error(i32 noundef 17, i32 noundef 0, i32 noundef 104, ptr noundef nonnull @.str, i32 noundef 255) #12
  br label %47

35:                                               ; preds = %25
  %36 = sub nuw i64 %27, %1
  store i64 %36, ptr %26, align 8, !tbaa !22
  %37 = add i64 %31, %1
  %38 = icmp eq i64 %37, %29
  br i1 %38, label %43, label %39

39:                                               ; preds = %35
  %40 = getelementptr inbounds nuw i8, ptr %14, i64 50
  %41 = load i8, ptr %40, align 2, !tbaa !27
  %.not37 = icmp eq i8 %41, 0
  %42 = icmp eq i64 %27, %1
  %or.cond = and i1 %42, %.not37
  %spec.select = select i1 %or.cond, i64 0, i64 %37
  br label %43

43:                                               ; preds = %39, %35
  %storemerge = phi i64 [ 0, %35 ], [ %spec.select, %39 ]
  store i64 %storemerge, ptr %30, align 8, !tbaa !24
  %44 = getelementptr inbounds nuw i8, ptr %0, i64 64
  %45 = load i64, ptr %44, align 8, !tbaa !28
  %46 = add i64 %45, %1
  store i64 %46, ptr %44, align 8, !tbaa !28
  store i8 0, ptr %22, align 1, !tbaa !20
  br label %47

47:                                               ; preds = %43, %34, %24, %20, %11, %5
  %.0 = phi i32 [ 0, %20 ], [ 0, %34 ], [ 1, %43 ], [ 0, %24 ], [ 0, %11 ], [ 0, %5 ]
  ret i32 %.0
}